; Function Attrs: mustprogress nounwind uwtable
define internal fastcc void @_ZL26CheckArrayDesignatorSyntaxRN5clang6ParserENS_14SourceLocationERNS_11DesignationE(ptr noundef nonnull align 8 dereferenceable(2936) %0, i32 %1, ptr noundef nonnull align 8 dereferenceable(96) %2) unnamed_addr #0 {
  %4 = alloca %"class.clang::DiagnosticBuilder", align 8
  %5 = alloca %"class.clang::DiagnosticBuilder", align 8
  %6 = tail call noundef i64 @_ZNK4llvm15SmallVectorBaseIjE4sizeEv(ptr noundef nonnull align 8 dereferenceable(16) %2) #10
  %7 = and i64 %6, 4294967295
  %8 = icmp eq i64 %7, 1
  br i1 %8, label %9, label %38

9:                                                ; preds = %3
  %10 = load ptr, ptr %2, align 8
  %11 = load i32, ptr %10, align 8
  %.off = add i32 %11, -1
  %switch = icmp ult i32 %.off, 2
  br i1 %switch, label %12, label %38

12:                                               ; preds = %9
  call void @_ZN5clang6Parser4DiagENS_14SourceLocationEj(ptr dead_on_unwind nonnull writable sret(%"class.clang::DiagnosticBuilder") align 8 %4, ptr noundef nonnull align 8 dereferenceable(2936) %0, i32 %1, i32 noundef 1872) #10
  %13 = getelementptr inbounds nuw i8, ptr %4, i64 24
  %14 = load i8, ptr %13, align 8
  %15 = trunc i8 %14 to i1
  br i1 %15, label %16, label %_ZN5clang17DiagnosticBuilder4EmitEv.exit.i

16:                                               ; preds = %12
  %17 = getelementptr inbounds nuw i8, ptr %4, i64 16
  %18 = load ptr, ptr %17, align 8
  %19 = getelementptr inbounds nuw i8, ptr %4, i64 25
  %20 = load i8, ptr %19, align 1
  %21 = trunc i8 %20 to i1
  %22 = call noundef zeroext i1 @_ZN5clang17DiagnosticsEngine21EmitCurrentDiagnosticEb(ptr noundef nonnull align 8 dereferenceable(1304) %18, i1 noundef zeroext %21) #10
  store ptr null, ptr %17, align 8
  store i8 0, ptr %13, align 8
  store i8 0, ptr %19, align 1
  br label %_ZN5clang17DiagnosticBuilder4EmitEv.exit.i

_ZN5clang17DiagnosticBuilder4EmitEv.exit.i:       ; preds = %16, %12
  %23 = load ptr, ptr %4, align 8
  %.not.i.i.i = icmp eq ptr %23, null
  br i1 %.not.i.i.i, label %_ZN5clang17DiagnosticBuilderD2Ev.exit, label %24

24:                                               ; preds = %_ZN5clang17DiagnosticBuilder4EmitEv.exit.i
  %25 = getelementptr inbounds nuw i8, ptr %4, i64 8
  %26 = load ptr, ptr %25, align 8
  %.not.i.i.i.i = icmp eq ptr %26, null
  br i1 %.not.i.i.i.i, label %_ZN5clang17DiagnosticBuilderD2Ev.exit, label %27

27:                                               ; preds = %24
  %28 = icmp uge ptr %23, %26
  %29 = getelementptr inbounds i8, ptr %26, i64 14848
  %30 = icmp ule ptr %23, %29
  %or.cond.i.i.i.i.i = select i1 %28, i1 %30, i1 false
  br i1 %or.cond.i.i.i.i.i, label %31, label %37

31:                                               ; preds = %27
  %32 = getelementptr inbounds nuw i8, ptr %26, i64 14976
  %33 = load i32, ptr %32, align 8
  %34 = add i32 %33, 1
  store i32 %34, ptr %32, align 8
  %35 = zext i32 %33 to i64
  %36 = getelementptr inbounds [16 x ptr], ptr %29, i64 0, i64 %35
  store ptr %23, ptr %36, align 8
  br label %_ZN5clang17DiagnosticBuilderD2Ev.exit

37:                                               ; preds = %27
  call void @_ZN5clang17DiagnosticStorageD2Ev(ptr noundef nonnull align 8 dereferenceable(928) %23) #10
  call void @_ZdlPvm(ptr noundef nonnull %23, i64 noundef 928) #11
  br label %_ZN5clang17DiagnosticBuilderD2Ev.exit

38:                                               ; preds = %9, %3
  %39 = tail call noundef i64 @_ZNK4llvm15SmallVectorBaseIjE4sizeEv(ptr noundef nonnull align 8 dereferenceable(16) %2) #10
  %40 = and i64 %39, 4294967295
  %.not = icmp eq i64 %40, 0
  br i1 %.not, label %_ZN5clang17DiagnosticBuilderD2Ev.exit, label %41

41:                                               ; preds = %38
  call void @_ZN5clang6Parser4DiagENS_14SourceLocationEj(ptr dead_on_unwind nonnull writable sret(%"class.clang::DiagnosticBuilder") align 8 %5, ptr noundef nonnull align 8 dereferenceable(2936) %0, i32 %1, i32 noundef 1507) #10
  %42 = getelementptr inbounds nuw i8, ptr %5, i64 24
  %43 = load i8, ptr %42, align 8
  %44 = trunc i8 %43 to i1
  br i1 %44, label %45, label %_ZN5clang17DiagnosticBuilder4EmitEv.exit.i9

45:                                               ; preds = %41
  %46 = getelementptr inbounds nuw i8, ptr %5, i64 16
  %47 = load ptr, ptr %46, align 8
  %48 = getelementptr inbounds nuw i8, ptr %5, i64 25
  %49 = load i8, ptr %48, align 1
  %50 = trunc i8 %49 to i1
  %51 = call noundef zeroext i1 @_ZN5clang17DiagnosticsEngine21EmitCurrentDiagnosticEb(ptr noundef nonnull align 8 dereferenceable(1304) %47, i1 noundef zeroext %50) #10
  store ptr null, ptr %46, align 8
  store i8 0, ptr %42, align 8
  store i8 0, ptr %48, align 1
  br label %_ZN5clang17DiagnosticBuilder4EmitEv.exit.i9

_ZN5clang17DiagnosticBuilder4EmitEv.exit.i9:      ; preds = %45, %41
  %52 = load ptr, ptr %5, align 8
  %.not.i.i.i10 = icmp eq ptr %52, null
  br i1 %.not.i.i.i10, label %_ZN5clang17DiagnosticBuilderD2Ev.exit, label %53

53:                                               ; preds = %_ZN5clang17DiagnosticBuilder4EmitEv.exit.i9
  %54 = getelementptr inbounds nuw i8, ptr %5, i64 8
  %55 = load ptr, ptr %54, align 8
  %.not.i.i.i.i11 = icmp eq ptr %55, null
  br i1 %.not.i.i.i.i11, label %_ZN5clang17DiagnosticBuilderD2Ev.exit, label %56

56:                                               ; preds = %53
  %57 = icmp uge ptr %52, %55
  %58 = getelementptr inbounds i8, ptr %55, i64 14848
  %59 = icmp ule ptr %52, %58
  %or.cond.i.i.i.i.i12 = select i1 %57, i1 %59, i1 false
  br i1 %or.cond.i.i.i.i.i12, label %60, label %66

60:                                               ; preds = %56
  %61 = getelementptr inbounds nuw i8, ptr %55, i64 14976
  %62 = load i32, ptr %61, align 8
  %63 = add i32 %62, 1
  store i32 %63, ptr %61, align 8
  %64 = zext i32 %62 to i64
  %65 = getelementptr inbounds [16 x ptr], ptr %58, i64 0, i64 %64
  store ptr %52, ptr %65, align 8
  br label %_ZN5clang17DiagnosticBuilderD2Ev.exit

66:                                               ; preds = %56
  call void @_ZN5clang17DiagnosticStorageD2Ev(ptr noundef nonnull align 8 dereferenceable(928) %52) #10
  call void @_ZdlPvm(ptr noundef nonnull %52, i64 noundef 928) #11
  br label %_ZN5clang17DiagnosticBuilderD2Ev.exit

_ZN5clang17DiagnosticBuilderD2Ev.exit:            ; preds = %60, %66, %31, %37, %53, %_ZN5clang17DiagnosticBuilder4EmitEv.exit.i9, %24, %_ZN5clang17DiagnosticBuilder4EmitEv.exit.i, %38
  ret void
}